; Function Attrs: nofree norecurse nosync nounwind memory(argmem: readwrite) uwtable
define hidden void @aom_h_predictor_16x8_c(ptr nocapture noundef writeonly %0, i64 noundef %1, ptr nocapture noundef readnone %2, ptr nocapture noundef readonly %3) local_unnamed_addr #0 {
  br label %5

5:                                                ; preds = %5, %4
  %indvars.iv.i = phi i64 [ 0, %4 ], [ %indvars.iv.next.i, %5 ]
  %.081.i = phi ptr [ %0, %4 ], [ %8, %5 ]
  %6 = getelementptr inbounds i8, ptr %3, i64 %indvars.iv.i
  %7 = load i8, ptr %6, align 1
  tail call void @llvm.memset.p0.i64(ptr noundef nonnull align 1 dereferenceable(16) %.081.i, i8 %7, i64 16, i1 false)
  %8 = getelementptr inbounds i8, ptr %.081.i, i64 %1
  %indvars.iv.next.i = add nuw nsw i64 %indvars.iv.i, 1
  %exitcond.not.i = icmp eq i64 %indvars.iv.next.i, 8
  br i1 %exitcond.not.i, label %h_predictor.exit, label %5, !llvm.loop !13

h_predictor.exit:                                 ; preds = %5
  ret void
}